target datalayout = "e-m:e-p270:32:32-p271:32:32-p272:64:64-i64:64-i128:128-f80:128-n8:16:32:64-S128"
target triple = "x86_64-unknown-linux-gnu"

%struct.anon = type { ptr, ptr, ptr, %struct.QemuMutex, ptr, ptr }
%struct.QemuMutex = type { %union.pthread_mutex_t, i8 }
%union.pthread_mutex_t = type { %struct.__pthread_mutex_s }
%struct.__pthread_mutex_s = type { i32, i32, i32, i32, i32, i16, i16, %struct.__pthread_internal_list }
%struct.__pthread_internal_list = type { ptr, ptr }
%struct.RAMList = type { %struct.QemuMutex, ptr, %struct.anon.0, [3 x ptr], i32, %struct.anon.1 }
%struct.anon.0 = type { ptr }
%struct.anon.1 = type { ptr }
%struct.RAMBlock = type { %struct.rcu_head, ptr, ptr, ptr, i64, i64, i64, ptr, i32, [256 x i8], %struct.anon.2, %struct.anon.3, i32, i64, i64, ptr, ptr, ptr, i8, i64 }
%struct.rcu_head = type { ptr, ptr }
%struct.anon.2 = type { ptr, ptr }
%struct.anon.3 = type { ptr }

@.str = private unnamed_addr constant [24 x i8] c"../qemu/migration/ram.c\00", align 1
@XBZRLE = internal global %struct.anon zeroinitializer, align 8
@ram_list = external global %struct.RAMList, align 8
@qemu_mutex_lock_func = external global ptr, align 8
@migration_ops = dso_local global ptr null, align 8
@__func__.XBZRLE_cache_lock = private unnamed_addr constant [18 x i8] c"XBZRLE_cache_lock\00", align 1
@global_dirty_tracking = external global i32, align 4
@__func__.ram_save_cleanup = private unnamed_addr constant [17 x i8] c"ram_save_cleanup\00", align 1

; Function Attrs: nounwind sspstrong uwtable
define internal void @XBZRLE_cache_unlock() #0 {
entry:
  %call = call zeroext i1 @migrate_xbzrle()
  br i1 %call, label %if.then, label %if.end

if.then:                                          ; preds = %entry
  %0 = getelementptr inbounds %struct.anon, ptr @XBZRLE, i32 0, i32 3
  call void @qemu_mutex_unlock_impl(ptr noundef %0, ptr noundef @.str, i32 noundef 145)
  br label %if.end

if.end:                                           ; preds = %if.then, %entry
  ret void
}

; Function Attrs: nounwind sspstrong uwtable
define internal void @XBZRLE_cache_lock() #0 {
entry:
  %_f = alloca ptr, align 8
  %tmp = alloca ptr, align 8
  %atomic-temp = alloca ptr, align 8
  %call = call zeroext i1 @migrate_xbzrle()
  br i1 %call, label %if.then, label %if.end

if.then:                                          ; preds = %entry
  br label %while.cond

while.cond:                                       ; preds = %do.end, %if.then
  br i1 false, label %while.body, label %while.end

while.body:                                       ; preds = %while.cond
  br label %do.body

do.body:                                          ; preds = %while.body
  call void @g_assertion_message_expr(ptr noundef null, ptr noundef @.str, i32 noundef 138, ptr noundef @__func__.XBZRLE_cache_lock, ptr noundef null) #12
  unreachable

do.end:                                           ; No predecessors!
  br label %while.cond

while.end:                                        ; preds = %while.cond
  %0 = load atomic i64, ptr @qemu_mutex_lock_func monotonic, align 8
  store i64 %0, ptr %atomic-temp, align 8
  %1 = load ptr, ptr %atomic-temp, align 8
  store ptr %1, ptr %tmp, align 8
  %2 = load ptr, ptr %tmp, align 8
  store ptr %2, ptr %_f, align 8
  %3 = load ptr, ptr %_f, align 8
  %4 = getelementptr inbounds %struct.anon, ptr @XBZRLE, i32 0, i32 3
  call void %3(ptr noundef %4, ptr noundef @.str, i32 noundef 138)
  br label %if.end

if.end:                                           ; preds = %while.end, %entry
  ret void
}

; Function Attrs: nounwind sspstrong uwtable
define internal void @xbzrle_cleanup() #0 {
entry:
  call void @XBZRLE_cache_lock()
  %0 = getelementptr inbounds %struct.anon, ptr @XBZRLE, i32 0, i32 2
  %1 = load ptr, ptr %0, align 8
  %tobool = icmp ne ptr %1, null
  br i1 %tobool, label %if.then, label %if.end

if.then:                                          ; preds = %entry
  %2 = getelementptr inbounds %struct.anon, ptr @XBZRLE, i32 0, i32 2
  %3 = load ptr, ptr %2, align 8
  call void @cache_fini(ptr noundef %3)
  %4 = load ptr, ptr @XBZRLE, align 8
  call void @g_free(ptr noundef %4)
  %5 = getelementptr inbounds %struct.anon, ptr @XBZRLE, i32 0, i32 1
  %6 = load ptr, ptr %5, align 8
  call void @g_free(ptr noundef %6)
  %7 = getelementptr inbounds %struct.anon, ptr @XBZRLE, i32 0, i32 4
  %8 = load ptr, ptr %7, align 8
  call void @g_free(ptr noundef %8)
  %9 = getelementptr inbounds %struct.anon, ptr @XBZRLE, i32 0, i32 2
  store ptr null, ptr %9, align 8
  store ptr null, ptr @XBZRLE, align 8
  %10 = getelementptr inbounds %struct.anon, ptr @XBZRLE, i32 0, i32 1
  store ptr null, ptr %10, align 8
  %11 = getelementptr inbounds %struct.anon, ptr @XBZRLE, i32 0, i32 4
  store ptr null, ptr %11, align 8
  br label %if.end

if.end:                                           ; preds = %if.then, %entry
  call void @XBZRLE_cache_unlock()
  ret void
}

; Function Attrs: nounwind sspstrong uwtable
define dso_local zeroext i1 @migrate_ram_is_ignored(ptr noundef %block) #0 {
entry:
  %block.addr = alloca ptr, align 8
  store ptr %block, ptr %block.addr, align 8
  %0 = load ptr, ptr %block.addr, align 8
  %call = call zeroext i1 @qemu_ram_is_migratable(ptr noundef %0)
  br i1 %call, label %lor.rhs, label %lor.end

lor.rhs:                                          ; preds = %entry
  %call1 = call zeroext i1 @migrate_ignore_shared()
  br i1 %call1, label %land.lhs.true, label %land.end

land.lhs.true:                                    ; preds = %lor.rhs
  %1 = load ptr, ptr %block.addr, align 8
  %call2 = call zeroext i1 @qemu_ram_is_shared(ptr noundef %1)
  br i1 %call2, label %land.rhs, label %land.end

land.rhs:                                         ; preds = %land.lhs.true
  %2 = load ptr, ptr %block.addr, align 8
  %call3 = call zeroext i1 @qemu_ram_is_named_file(ptr noundef %2)
  br label %land.end

land.end:                                         ; preds = %land.rhs, %land.lhs.true, %lor.rhs
  %3 = phi i1 [ false, %land.lhs.true ], [ false, %lor.rhs ], [ %call3, %land.rhs ]
  br label %lor.end

lor.end:                                          ; preds = %land.end, %entry
  %4 = phi i1 [ true, %entry ], [ %3, %land.end ]
  ret i1 %4
}

; Function Attrs: nounwind sspstrong uwtable
define internal void @ram_save_cleanup(ptr noundef %opaque) #0 {
entry:
  %opaque.addr = alloca ptr, align 8
  %rsp = alloca ptr, align 8
  %block = alloca ptr, align 8
  %_val53 = alloca ptr, align 8
  %tmp = alloca ptr, align 8
  %_val54 = alloca ptr, align 8
  %tmp14 = alloca ptr, align 8
  store ptr %opaque, ptr %opaque.addr, align 8
  %0 = load ptr, ptr %opaque.addr, align 8
  store ptr %0, ptr %rsp, align 8
  %call = call zeroext i1 @migrate_background_snapshot()
  br i1 %call, label %if.end2, label %if.then

if.then:                                          ; preds = %entry
  %1 = load i32, ptr @global_dirty_tracking, align 4
  %and = and i32 %1, 1
  %tobool = icmp ne i32 %and, 0
  br i1 %tobool, label %if.then1, label %if.end

if.then1:                                         ; preds = %if.then
  call void @memory_global_dirty_log_stop(i32 noundef 1)
  br label %if.end

if.end:                                           ; preds = %if.then1, %if.then
  br label %if.end2

if.end2:                                          ; preds = %if.end, %entry
  br label %while.cond

while.cond:                                       ; preds = %do.end, %if.end2
  br i1 false, label %while.body, label %while.end

while.body:                                       ; preds = %while.cond
  br label %do.body

do.body:                                          ; preds = %while.body
  call void @g_assertion_message_expr(ptr noundef null, ptr noundef @.str, i32 noundef 2411, ptr noundef @__func__.ram_save_cleanup, ptr noundef null) #12
  unreachable

do.end:                                           ; No predecessors!
  br label %while.cond

while.end:                                        ; preds = %while.cond
  %2 = getelementptr inbounds %struct.RAMList, ptr @ram_list, i32 0, i32 2
  %3 = load atomic i64, ptr %2 monotonic, align 8
  store i64 %3, ptr %_val53, align 8
  call void asm sideeffect "", "~{memory},~{dirflag},~{fpsr},~{flags}"() #13, !srcloc !93
  %4 = load ptr, ptr %_val53, align 8
  store ptr %4, ptr %tmp, align 8
  %5 = load ptr, ptr %tmp, align 8
  store ptr %5, ptr %block, align 8
  br label %for.cond

for.cond:                                         ; preds = %while.end13, %while.end
  %6 = load ptr, ptr %block, align 8
  %tobool3 = icmp ne ptr %6, null
  br i1 %tobool3, label %for.body, label %for.end

for.body:                                         ; preds = %for.cond
  %7 = load ptr, ptr %block, align 8
  %call4 = call zeroext i1 @migrate_ram_is_ignored(ptr noundef %7)
  br i1 %call4, label %if.then5, label %if.else

if.then5:                                         ; preds = %for.body
  br label %if.end8

if.else:                                          ; preds = %for.body
  %8 = load ptr, ptr %block, align 8
  %clear_bmap = getelementptr inbounds %struct.RAMBlock, ptr %8, i32 0, i32 17
  %9 = load ptr, ptr %clear_bmap, align 8
  call void @g_free(ptr noundef %9)
  %10 = load ptr, ptr %block, align 8
  %clear_bmap6 = getelementptr inbounds %struct.RAMBlock, ptr %10, i32 0, i32 17
  store ptr null, ptr %clear_bmap6, align 8
  %11 = load ptr, ptr %block, align 8
  %bmap = getelementptr inbounds %struct.RAMBlock, ptr %11, i32 0, i32 15
  %12 = load ptr, ptr %bmap, align 8
  call void @g_free(ptr noundef %12)
  %13 = load ptr, ptr %block, align 8
  %bmap7 = getelementptr inbounds %struct.RAMBlock, ptr %13, i32 0, i32 15
  store ptr null, ptr %bmap7, align 8
  br label %if.end8

if.end8:                                          ; preds = %if.else, %if.then5
  br label %for.inc

for.inc:                                          ; preds = %if.end8
  br label %while.cond9

while.cond9:                                      ; preds = %do.end12, %for.inc
  br i1 false, label %while.body10, label %while.end13

while.body10:                                     ; preds = %while.cond9
  br label %do.body11

do.body11:                                        ; preds = %while.body10
  call void @g_assertion_message_expr(ptr noundef null, ptr noundef @.str, i32 noundef 2411, ptr noundef @__func__.ram_save_cleanup, ptr noundef null) #12
  unreachable

do.end12:                                         ; No predecessors!
  br label %while.cond9

while.end13:                                      ; preds = %while.cond9
  %14 = load ptr, ptr %block, align 8
  %next = getelementptr inbounds %struct.RAMBlock, ptr %14, i32 0, i32 10
  %le_next = getelementptr inbounds %struct.anon.2, ptr %next, i32 0, i32 0
  %15 = load atomic i64, ptr %le_next monotonic, align 8
  store i64 %15, ptr %_val54, align 8
  call void asm sideeffect "", "~{memory},~{dirflag},~{fpsr},~{flags}"() #13, !srcloc !94
  %16 = load ptr, ptr %_val54, align 8
  store ptr %16, ptr %tmp14, align 8
  %17 = load ptr, ptr %tmp14, align 8
  store ptr %17, ptr %block, align 8
  br label %for.cond, !llvm.loop !95

for.end:                                          ; preds = %for.cond
  call void @xbzrle_cleanup()
  call void @compress_threads_save_cleanup()
  %18 = load ptr, ptr %rsp, align 8
  call void @ram_state_cleanup(ptr noundef %18)
  %19 = load ptr, ptr @migration_ops, align 8
  call void @g_free(ptr noundef %19)
  store ptr null, ptr @migration_ops, align 8
  ret void
}