; Function Attrs: nounwind sspstrong uwtable
define internal void @ram_save_cleanup(ptr noundef captures(none) %opaque) #0 {
entry:
  %call = tail call zeroext i1 @migrate_background_snapshot() #18
  br i1 %call, label %while.end, label %if.then

if.then:                                          ; preds = %entry
  %0 = load i32, ptr @global_dirty_tracking, align 4
  %and = and i32 %0, 1
  %tobool.not = icmp eq i32 %and, 0
  br i1 %tobool.not, label %while.end, label %if.then1

if.then1:                                         ; preds = %if.then
  tail call void @memory_global_dirty_log_stop(i32 noundef 1) #18
  br label %while.end

while.end:                                        ; preds = %if.then, %if.then1, %entry
  %1 = load atomic i64, ptr getelementptr inbounds nuw (i8, ptr @ram_list, i64 56) monotonic, align 8
  tail call void asm sideeffect "", "~{memory},~{dirflag},~{fpsr},~{flags}"() #18, !srcloc !95
  %tobool3.not9 = icmp eq i64 %1, 0
  br i1 %tobool3.not9, label %for.end, label %for.body

for.body:                                         ; preds = %while.end, %while.end13
  %block.010.in = phi i64 [ %4, %while.end13 ], [ %1, %while.end ]
  %block.010 = inttoptr i64 %block.010.in to ptr
  %call.i = tail call zeroext i1 @qemu_ram_is_migratable(ptr noundef nonnull %block.010) #18
  br i1 %call.i, label %lor.rhs.i, label %while.end13

lor.rhs.i:                                        ; preds = %for.body
  %call1.i = tail call zeroext i1 @migrate_ignore_shared() #18
  br i1 %call1.i, label %land.lhs.true.i, label %if.else

land.lhs.true.i:                                  ; preds = %lor.rhs.i
  %call2.i = tail call zeroext i1 @qemu_ram_is_shared(ptr noundef nonnull %block.010) #18
  br i1 %call2.i, label %migrate_ram_is_ignored.exit, label %if.else

migrate_ram_is_ignored.exit:                      ; preds = %land.lhs.true.i
  %call3.i = tail call zeroext i1 @qemu_ram_is_named_file(ptr noundef nonnull %block.010) #18
  br i1 %call3.i, label %while.end13, label %if.else

if.else:                                          ; preds = %lor.rhs.i, %land.lhs.true.i, %migrate_ram_is_ignored.exit
  %clear_bmap = getelementptr inbounds nuw i8, ptr %block.010, i64 400
  %2 = load ptr, ptr %clear_bmap, align 8
  tail call void @g_free(ptr noundef %2) #18
  store ptr null, ptr %clear_bmap, align 8
  %bmap = getelementptr inbounds nuw i8, ptr %block.010, i64 384
  %3 = load ptr, ptr %bmap, align 8
  tail call void @g_free(ptr noundef %3) #18
  store ptr null, ptr %bmap, align 8
  br label %while.end13

while.end13:                                      ; preds = %for.body, %if.else, %migrate_ram_is_ignored.exit
  %next = getelementptr inbounds nuw i8, ptr %block.010, i64 336
  %4 = load atomic i64, ptr %next monotonic, align 8
  tail call void asm sideeffect "", "~{memory},~{dirflag},~{fpsr},~{flags}"() #18, !srcloc !96
  %tobool3.not = icmp eq i64 %4, 0
  br i1 %tobool3.not, label %for.end, label %for.body, !llvm.loop !97

for.end:                                          ; preds = %while.end13, %while.end
  %call.i.i = tail call zeroext i1 @migrate_xbzrle() #18
  br i1 %call.i.i, label %while.end.i.i, label %XBZRLE_cache_lock.exit.i

while.end.i.i:                                    ; preds = %for.end
  %5 = load atomic i64, ptr @qemu_mutex_lock_func monotonic, align 8
  %6 = inttoptr i64 %5 to ptr
  tail call void %6(ptr noundef nonnull getelementptr inbounds nuw (i8, ptr @XBZRLE, i64 24), ptr noundef nonnull @.str, i32 noundef 138) #18
  br label %XBZRLE_cache_lock.exit.i

XBZRLE_cache_lock.exit.i:                         ; preds = %while.end.i.i, %for.end
  %7 = load ptr, ptr getelementptr inbounds nuw (i8, ptr @XBZRLE, i64 16), align 8
  %tobool.not.i = icmp eq ptr %7, null
  br i1 %tobool.not.i, label %if.end.i, label %if.then.i

if.then.i:                                        ; preds = %XBZRLE_cache_lock.exit.i
  tail call void @cache_fini(ptr noundef nonnull %7) #18
  %8 = load ptr, ptr @XBZRLE, align 8
  tail call void @g_free(ptr noundef %8) #18
  %9 = load ptr, ptr getelementptr inbounds nuw (i8, ptr @XBZRLE, i64 8), align 8
  tail call void @g_free(ptr noundef %9) #18
  %10 = load ptr, ptr getelementptr inbounds nuw (i8, ptr @XBZRLE, i64 72), align 8
  tail call void @g_free(ptr noundef %10) #18
  store ptr null, ptr getelementptr inbounds nuw (i8, ptr @XBZRLE, i64 72), align 8
  tail call void @llvm.memset.p0.i64(ptr noundef nonnull align 8 dereferenceable(24) @XBZRLE, i8 0, i64 24, i1 false)
  br label %if.end.i

if.end.i:                                         ; preds = %if.then.i, %XBZRLE_cache_lock.exit.i
  %call.i1.i = tail call zeroext i1 @migrate_xbzrle() #18
  br i1 %call.i1.i, label %if.then.i.i, label %xbzrle_cleanup.exit

if.then.i.i:                                      ; preds = %if.end.i
  tail call void @qemu_mutex_unlock_impl(ptr noundef nonnull getelementptr inbounds nuw (i8, ptr @XBZRLE, i64 24), ptr noundef nonnull @.str, i32 noundef 145) #18
  br label %xbzrle_cleanup.exit

xbzrle_cleanup.exit:                              ; preds = %if.end.i, %if.then.i.i
  tail call void @compress_threads_save_cleanup() #18
  tail call fastcc void @ram_state_cleanup(ptr noundef %opaque)
  %11 = load ptr, ptr @migration_ops, align 8
  tail call void @g_free(ptr noundef %11) #18
  store ptr null, ptr @migration_ops, align 8
  ret void
}